target datalayout = "e-m:e-p270:32:32-p271:32:32-p272:64:64-i64:64-i128:128-f80:128-n8:16:32:64-S128"
target triple = "x86_64-pc-linux-gnu"

%class.LibRaw = type { ptr, %struct.libraw_data_t, ptr, %struct.libraw_internal_data_t, [2048 x %struct.decode], ptr, ptr, [10 x %struct.tiff_ifd_t], %class.libraw_memmgr, %struct.libraw_callbacks_t, { i64, i64 }, { i64, i64 }, { i64, i64 }, ptr, ptr, ptr, i64, ptr, ptr, ptr, ptr }
%struct.libraw_data_t = type { ptr, %struct.libraw_image_sizes_t, %struct.libraw_iparams_t, %struct.libraw_lensinfo_t, %struct.libraw_makernotes_t, %struct.libraw_shootinginfo_t, %struct.libraw_output_params_t, %struct.libraw_raw_unpack_params_t, i32, i32, %struct.libraw_colordata_t, %struct.libraw_imgother_t, %struct.libraw_thumbnail_t, %struct.libraw_thumbnail_list_t, %struct.libraw_rawdata_t, ptr }
%struct.libraw_image_sizes_t = type { i16, i16, i16, i16, i16, i16, i16, i16, i32, double, i32, [8 x [4 x i32]], i16, [2 x %struct.libraw_raw_inset_crop_t] }
%struct.libraw_raw_inset_crop_t = type { i16, i16, i16, i16 }
%struct.libraw_iparams_t = type { [4 x i8], [64 x i8], [64 x i8], [64 x i8], [64 x i8], [64 x i8], i32, i32, i32, i32, i32, i32, [6 x [6 x i8]], [6 x [6 x i8]], [5 x i8], i32, ptr }
%struct.libraw_lensinfo_t = type { float, float, float, float, float, [128 x i8], [128 x i8], [128 x i8], [128 x i8], i16, %struct.libraw_nikonlens_t, %struct.libraw_dnglens_t, %struct.libraw_makernotes_lens_t }
%struct.libraw_nikonlens_t = type { float, i8, i8, i8, i8 }
%struct.libraw_dnglens_t = type { float, float, float, float }
%struct.libraw_makernotes_lens_t = type { i64, [128 x i8], i16, i16, i64, i16, i16, [64 x i8], i16, [16 x i8], [16 x i8], float, float, float, float, float, float, float, float, float, float, float, float, float, float, float, i64, [128 x i8], i64, [128 x i8], i64, [128 x i8], i16, float }
%struct.libraw_makernotes_t = type { %struct.libraw_canon_makernotes_t, %struct.libraw_nikon_makernotes_t, %struct.libraw_hasselblad_makernotes_t, %struct.libraw_fuji_info_t, %struct.libraw_olympus_makernotes_t, %struct.libraw_sony_info_t, %struct.libraw_kodak_makernotes_t, %struct.libraw_panasonic_makernotes_t, %struct.libraw_pentax_makernotes_t, %struct.libraw_p1_makernotes_t, %struct.libraw_ricoh_makernotes_t, %struct.libraw_samsung_makernotes_t, %struct.libraw_metadata_common_t }
%struct.libraw_canon_makernotes_t = type { i32, i32, i32, i32, [4 x i32], i32, [4 x i32], i16, i16, i8, i16, i16, i16, i16, i16, i16, i16, i16, i16, i16, i16, i16, i16, i32, float, i16, i16, i16, i32, i16, i32, i32, i16, i32, %struct.libraw_area_t, %struct.libraw_area_t, %struct.libraw_area_t, %struct.libraw_area_t, %struct.libraw_area_t, [2 x i16] }
%struct.libraw_area_t = type { i16, i16, i16, i16 }
%struct.libraw_nikon_makernotes_t = type { double, i16, i16, [7 x i8], i8, i8, [13 x i8], [20 x i8], [4 x i8], [4 x i8], [4 x i8], i8, i8, i8, i8, i8, [2 x i8], i8, i8, i8, i8, i8, [4 x i8], [4 x i8], i8, i16, i32, i32, i32, i32, [4 x double], i8, i8, i8, i32, i32, i32, i8, [4 x i16], i16, %struct.libraw_sensor_highspeed_crop_t, i16, i16, i16, i32, [20 x i8], [20 x i8], i32, i16, double, double, double }
%struct.libraw_sensor_highspeed_crop_t = type { i16, i16, i16, i16 }
%struct.libraw_hasselblad_makernotes_t = type { i32, double, [8 x i8], [64 x i8], [64 x i8], i32, i32, i32, i32, [32 x i8], [64 x i8], i32, [2 x i32], [2 x i32], [4 x [3 x double]] }
%struct.libraw_fuji_info_t = type { float, i16, i16, i16, i16, i16, i16, i16, i16, [33 x i8], [33 x i8], float, i16, i16, [2 x i16], i16, i32, i32, i16, [3 x i16], i16, i16, i16, i16, i16, i32, i16, [13 x i8], [5 x i8], [5 x i8], i32, i16, i32, i16, [9 x i16], [32 x i32], i32, i32, i32, [2 x float], i32 }
%struct.libraw_olympus_makernotes_t = type { [6 x i8], i16, [2 x i32], [5 x i16], i16, [2 x i16], i16, i16, [64 x i32], [5 x double], i16, i8, [3 x i16], [3 x i32], i16, i16, i16, i16, double, [4 x i16], [2 x i32], i8, i32, i16, i16 }
%struct.libraw_sony_info_t = type { i16, i8, i8, i32, i8, i32, i8, i8, i16, [2 x i16], i8, i8, i16, [10 x i8], i8, i8, [4 x i16], i16, i8, i8, i8, i16, i32, i16, [2 x i16], i16, i16, i16, i16, i16, i16, i16, i32, float, i16, i32, i32, i16, [20 x i8], i32, i16, i32, i8, i8, i16, i16, i16, i16, i16, i16, i16, i16, i16, i32, i16, [16 x i8], float }
%struct.libraw_kodak_makernotes_t = type { i16, i16, i16, i16, i16, i16, [3 x [3 x float]], [3 x [3 x float]], [3 x [3 x float]], [3 x [3 x float]], [3 x [3 x float]], [3 x [3 x float]], i16, i16, i16, i16, float, float }
%struct.libraw_panasonic_makernotes_t = type { i16, i16, [8 x float], i32, float, [3 x i32], i16, i16, i32, i32 }
%struct.libraw_pentax_makernotes_t = type { [4 x i8], [2 x i16], [2 x i16], i16, i32, i32, i16, i16, i8, i8, i16 }
%struct.libraw_p1_makernotes_t = type { [64 x i8], [64 x i8], [256 x i8], [64 x i8] }
%struct.libraw_ricoh_makernotes_t = type { i16, [2 x i32], [2 x i32], i16, i32, i32, i32, i32, i16, i16, i16, i16, i16, i16, double, double }
%struct.libraw_samsung_makernotes_t = type { [4 x i32], [4 x i32], [2 x i32], [11 x i32], double, i32, [32 x i8] }
%struct.libraw_metadata_common_t = type { float, float, float, float, float, float, float, float, float, float, float, float, float, float, float, float, i16, [128 x i8], float, [4 x %struct.libraw_afinfo_item_t], i32 }
%struct.libraw_afinfo_item_t = type { i32, i16, i32, i32, ptr }
%struct.libraw_shootinginfo_t = type { i16, i16, i16, i16, i16, i16, i16, [64 x i8], [64 x i8] }
%struct.libraw_output_params_t = type { [4 x i32], [4 x i32], [4 x double], [6 x double], [4 x float], float, float, i32, i32, i32, i32, i32, i32, i32, ptr, ptr, ptr, ptr, i32, i32, i32, i32, i32, i32, [4 x i32], i32, i32, float, float, i32, i32, i32, i32, i32, i32, i32, i32, float, float, i32, i32 }
%struct.libraw_raw_unpack_params_t = type { i32, i32, i32, i32, i32, i32, i32, float, [5 x i8], ptr }
%struct.libraw_colordata_t = type { [65536 x i16], [4104 x i32], i32, i32, i32, [4 x i64], float, float, [8 x [8 x i16]], [4 x float], [4 x float], [3 x [4 x float]], [3 x [4 x float]], [3 x [4 x float]], [4 x [3 x float]], %struct.ph1_t, float, float, [64 x i8], [64 x i8], [64 x i8], [64 x i8], [17 x i8], [64 x i8], ptr, i32, [8 x i32], [2 x %struct.libraw_dng_color_t], %struct.libraw_dng_levels_t, [256 x [4 x i32]], [64 x [5 x float]], i32, [2 x %struct.libraw_P1_color_t], i32, i32 }
%struct.ph1_t = type { i32, i32, i32, i32, i32, i32, i32, i32, float }
%struct.libraw_dng_color_t = type { i32, i16, [4 x [4 x float]], [4 x [3 x float]], [3 x [4 x float]] }
%struct.libraw_dng_levels_t = type { i32, [4104 x i32], i32, [4104 x float], float, [4 x i32], [4 x i16], [4 x float], i32, [4 x float], [4 x float], float, float }
%struct.libraw_P1_color_t = type { [9 x float] }
%struct.libraw_imgother_t = type { float, float, float, float, i64, i32, [32 x i32], %struct.libraw_gps_info_t, [512 x i8], [64 x i8], [4 x float] }
%struct.libraw_gps_info_t = type { [3 x float], [3 x float], [3 x float], float, i8, i8, i8, i8, i8 }
%struct.libraw_thumbnail_t = type { i32, i16, i16, i32, i32, ptr }
%struct.libraw_thumbnail_list_t = type { i32, [8 x %struct.libraw_thumbnail_item_t] }
%struct.libraw_thumbnail_item_t = type { i32, i16, i16, i16, i32, i32, i64 }
%struct.libraw_rawdata_t = type { ptr, ptr, ptr, ptr, ptr, ptr, ptr, ptr, ptr, %struct.libraw_iparams_t, %struct.libraw_image_sizes_t, %struct.libraw_internal_output_params_t, %struct.libraw_colordata_t }
%struct.libraw_internal_output_params_t = type { i32, i32, i32, i16, i16 }
%struct.libraw_internal_data_t = type { %struct.internal_data_t, %struct.libraw_internal_output_params_t, %struct.output_data_t, %struct.identify_data_t, %struct.unpacker_data_t }
%struct.internal_data_t = type { ptr, ptr, i32, ptr, i64, i64, [4 x i32] }
%struct.output_data_t = type { ptr, ptr }
%struct.identify_data_t = type { i32, i64, i64, i32, i32, i32 }
%struct.unpacker_data_t = type { i16, [4 x i16], [3 x i16], i32, i64, i64, i64, i64, i64, i64, i32, i32, i32, i32, i32, i32, i32, i32, i32, i32, i32, i32, i32, i32, i32, i32, i32, i64, i32, i32, i32, i32, i32, i32, i32, i32, i32, %struct.pana8_tags_t, [16 x %struct.crx_data_header_t], i32, i32, i16, i16, i32, i32, i32, i32, i32, i32, i32, [20 x i32], i16 }
%struct.pana8_tags_t = type { [6 x i32], [6 x i16], i16, [4 x i16], [17 x i16], [17 x i16], [17 x i16], i16, i16, [5 x i64], [5 x i16], [5 x i32], [5 x i16], [5 x i16] }
%struct.crx_data_header_t = type { i32, i32, i32, i32, i32, i32, i32, i32, i32, i32, i32, i32, i32, i32, i32, i64, i32, ptr, i32, i32, i32, ptr, i32, ptr }
%struct.decode = type { [2 x ptr], i32 }
%struct.tiff_ifd_t = type { i32, i32, i32, i32, i32, i32, i32, i32, i32, i32, i32, i32, i32, i32, i32, ptr, i32, ptr, i32, i32, i32, i32, i32, i32, i32, float, i64, i64, i32, [2 x %struct.libraw_dng_color_t], %struct.libraw_dng_levels_t, i32 }
%class.libraw_memmgr = type <{ ptr, i32, [4 x i8] }>
%struct.libraw_callbacks_t = type { ptr, ptr, ptr, ptr, ptr, ptr, ptr, ptr, ptr, ptr, ptr, ptr, ptr, ptr, ptr, ptr, ptr }

; Function Attrs: inlinehint mustprogress nounwind uwtable
define internal void @_ZL24unpack7bytesto4x16_nikonPhPt(ptr noundef %0, ptr noundef %1) #6 {
  %3 = alloca ptr, align 8
  %4 = alloca ptr, align 8
  store ptr %0, ptr %3, align 8, !tbaa !121
  store ptr %1, ptr %4, align 8, !tbaa !84
  %5 = load ptr, ptr %3, align 8, !tbaa !121
  %6 = getelementptr inbounds i8, ptr %5, i64 6
  %7 = load i8, ptr %6, align 1, !tbaa !95
  %8 = zext i8 %7 to i32
  %9 = shl i32 %8, 6
  %10 = load ptr, ptr %3, align 8, !tbaa !121
  %11 = getelementptr inbounds i8, ptr %10, i64 5
  %12 = load i8, ptr %11, align 1, !tbaa !95
  %13 = zext i8 %12 to i32
  %14 = ashr i32 %13, 2
  %15 = or i32 %9, %14
  %16 = trunc i32 %15 to i16
  %17 = load ptr, ptr %4, align 8, !tbaa !84
  %18 = getelementptr inbounds i16, ptr %17, i64 3
  store i16 %16, ptr %18, align 2, !tbaa !85
  %19 = load ptr, ptr %3, align 8, !tbaa !121
  %20 = getelementptr inbounds i8, ptr %19, i64 5
  %21 = load i8, ptr %20, align 1, !tbaa !95
  %22 = zext i8 %21 to i32
  %23 = and i32 %22, 3
  %24 = shl i32 %23, 12
  %25 = load ptr, ptr %3, align 8, !tbaa !121
  %26 = getelementptr inbounds i8, ptr %25, i64 4
  %27 = load i8, ptr %26, align 1, !tbaa !95
  %28 = zext i8 %27 to i32
  %29 = shl i32 %28, 4
  %30 = or i32 %24, %29
  %31 = load ptr, ptr %3, align 8, !tbaa !121
  %32 = getelementptr inbounds i8, ptr %31, i64 3
  %33 = load i8, ptr %32, align 1, !tbaa !95
  %34 = zext i8 %33 to i32
  %35 = ashr i32 %34, 4
  %36 = or i32 %30, %35
  %37 = trunc i32 %36 to i16
  %38 = load ptr, ptr %4, align 8, !tbaa !84
  %39 = getelementptr inbounds i16, ptr %38, i64 2
  store i16 %37, ptr %39, align 2, !tbaa !85
  %40 = load ptr, ptr %3, align 8, !tbaa !121
  %41 = getelementptr inbounds i8, ptr %40, i64 3
  %42 = load i8, ptr %41, align 1, !tbaa !95
  %43 = zext i8 %42 to i32
  %44 = and i32 %43, 15
  %45 = shl i32 %44, 10
  %46 = load ptr, ptr %3, align 8, !tbaa !121
  %47 = getelementptr inbounds i8, ptr %46, i64 2
  %48 = load i8, ptr %47, align 1, !tbaa !95
  %49 = zext i8 %48 to i32
  %50 = shl i32 %49, 2
  %51 = or i32 %45, %50
  %52 = load ptr, ptr %3, align 8, !tbaa !121
  %53 = getelementptr inbounds i8, ptr %52, i64 1
  %54 = load i8, ptr %53, align 1, !tbaa !95
  %55 = zext i8 %54 to i32
  %56 = ashr i32 %55, 6
  %57 = or i32 %51, %56
  %58 = trunc i32 %57 to i16
  %59 = load ptr, ptr %4, align 8, !tbaa !84
  %60 = getelementptr inbounds i16, ptr %59, i64 1
  store i16 %58, ptr %60, align 2, !tbaa !85
  %61 = load ptr, ptr %3, align 8, !tbaa !121
  %62 = getelementptr inbounds i8, ptr %61, i64 1
  %63 = load i8, ptr %62, align 1, !tbaa !95
  %64 = zext i8 %63 to i32
  %65 = and i32 %64, 63
  %66 = shl i32 %65, 8
  %67 = load ptr, ptr %3, align 8, !tbaa !121
  %68 = getelementptr inbounds i8, ptr %67, i64 0
  %69 = load i8, ptr %68, align 1, !tbaa !95
  %70 = zext i8 %69 to i32
  %71 = or i32 %66, %70
  %72 = trunc i32 %71 to i16
  %73 = load ptr, ptr %4, align 8, !tbaa !84
  %74 = getelementptr inbounds i16, ptr %73, i64 0
  store i16 %72, ptr %74, align 2, !tbaa !85
  ret void
}

; Function Attrs: mustprogress uwtable
define void @_ZN6LibRaw20nikon_14bit_load_rawEv(ptr noundef nonnull align 8 dereferenceable(767680) %0) #0 align 2 {
  %2 = alloca ptr, align 8
  %3 = alloca i32, align 4
  %4 = alloca i32, align 4
  %5 = alloca ptr, align 8
  %6 = alloca i32, align 4
  %7 = alloca i32, align 4
  %8 = alloca i32, align 4
  %9 = alloca ptr, align 8
  %10 = alloca i32, align 4
  %11 = alloca i32, align 4
  store ptr %0, ptr %2, align 8, !tbaa !6
  %12 = load ptr, ptr %2, align 8
  call void @llvm.lifetime.start.p0(i64 4, ptr %3) #14
  %13 = getelementptr inbounds nuw %class.LibRaw, ptr %12, i32 0, i32 1
  %14 = getelementptr inbounds nuw %struct.libraw_data_t, ptr %13, i32 0, i32 1
  %15 = getelementptr inbounds nuw %struct.libraw_image_sizes_t, ptr %14, i32 0, i32 1
  %16 = load i16, ptr %15, align 2, !tbaa !77
  %17 = zext i16 %16 to i32
  %18 = mul nsw i32 %17, 7
  %19 = sdiv i32 %18, 4
  %20 = sitofp i32 %19 to float
  %21 = fpext reassoc nsz arcp contract afn float %20 to double
  %22 = fdiv reassoc nsz arcp contract afn double %21, 1.600000e+01
  %23 = fptrunc reassoc nsz arcp contract afn double %22 to float
  %24 = call reassoc nsz arcp contract afn float @llvm.ceil.f32(float %23)
  %25 = fptoui float %24 to i32
  %26 = mul i32 %25, 16
  store i32 %26, ptr %3, align 4, !tbaa !83
  call void @llvm.lifetime.start.p0(i64 4, ptr %4) #14
  %27 = getelementptr inbounds nuw %class.LibRaw, ptr %12, i32 0, i32 1
  %28 = getelementptr inbounds nuw %struct.libraw_data_t, ptr %27, i32 0, i32 1
  %29 = getelementptr inbounds nuw %struct.libraw_image_sizes_t, ptr %28, i32 0, i32 8
  %30 = load i32, ptr %29, align 8, !tbaa !114
  %31 = icmp ne i32 %30, 0
  br i1 %31, label %32, label %38

32:                                               ; preds = %1
  %33 = getelementptr inbounds nuw %class.LibRaw, ptr %12, i32 0, i32 1
  %34 = getelementptr inbounds nuw %struct.libraw_data_t, ptr %33, i32 0, i32 1
  %35 = getelementptr inbounds nuw %struct.libraw_image_sizes_t, ptr %34, i32 0, i32 8
  %36 = load i32, ptr %35, align 8, !tbaa !114
  %37 = udiv i32 %36, 2
  br label %44

38:                                               ; preds = %1
  %39 = getelementptr inbounds nuw %class.LibRaw, ptr %12, i32 0, i32 1
  %40 = getelementptr inbounds nuw %struct.libraw_data_t, ptr %39, i32 0, i32 1
  %41 = getelementptr inbounds nuw %struct.libraw_image_sizes_t, ptr %40, i32 0, i32 1
  %42 = load i16, ptr %41, align 2, !tbaa !77
  %43 = zext i16 %42 to i32
  br label %44

44:                                               ; preds = %38, %32
  %45 = phi i32 [ %37, %32 ], [ %43, %38 ]
  store i32 %45, ptr %4, align 4, !tbaa !83
  call void @llvm.lifetime.start.p0(i64 8, ptr %5) #14
  %46 = load i32, ptr %3, align 4, !tbaa !83
  %47 = zext i32 %46 to i64
  %48 = call noundef ptr @_ZN6LibRaw6callocEmm(ptr noundef nonnull align 8 dereferenceable(767680) %12, i64 noundef %47, i64 noundef 1)
  store ptr %48, ptr %5, align 8, !tbaa !121
  call void @llvm.lifetime.start.p0(i64 4, ptr %6) #14
  store i32 0, ptr %6, align 4, !tbaa !83
  br label %49

49:                                               ; preds = %112, %44
  %50 = load i32, ptr %6, align 4, !tbaa !83
  %51 = getelementptr inbounds nuw %class.LibRaw, ptr %12, i32 0, i32 1
  %52 = getelementptr inbounds nuw %struct.libraw_data_t, ptr %51, i32 0, i32 1
  %53 = getelementptr inbounds nuw %struct.libraw_image_sizes_t, ptr %52, i32 0, i32 0
  %54 = load i16, ptr %53, align 8, !tbaa !78
  %55 = zext i16 %54 to i32
  %56 = icmp slt i32 %50, %55
  br i1 %56, label %58, label %57

57:                                               ; preds = %49
  store i32 2, ptr %7, align 4
  call void @llvm.lifetime.end.p0(i64 4, ptr %6) #14
  br label %115

58:                                               ; preds = %49
  call void @llvm.lifetime.start.p0(i64 4, ptr %8) #14
  %59 = getelementptr inbounds nuw %class.LibRaw, ptr %12, i32 0, i32 3
  %60 = getelementptr inbounds nuw %struct.libraw_internal_data_t, ptr %59, i32 0, i32 0
  %61 = getelementptr inbounds nuw %struct.internal_data_t, ptr %60, i32 0, i32 0
  %62 = load ptr, ptr %61, align 8, !tbaa !79
  %63 = load ptr, ptr %5, align 8, !tbaa !121
  %64 = load i32, ptr %3, align 4, !tbaa !83
  %65 = zext i32 %64 to i64
  %66 = load ptr, ptr %62, align 8, !tbaa !80
  %67 = getelementptr inbounds ptr, ptr %66, i64 3
  %68 = load ptr, ptr %67, align 8
  %69 = call noundef i32 %68(ptr noundef nonnull align 8 dereferenceable(8) %62, ptr noundef %63, i64 noundef 1, i64 noundef %65)
  store i32 %69, ptr %8, align 4, !tbaa !83
  call void @llvm.lifetime.start.p0(i64 8, ptr %9) #14
  %70 = getelementptr inbounds nuw %class.LibRaw, ptr %12, i32 0, i32 1
  %71 = getelementptr inbounds nuw %struct.libraw_data_t, ptr %70, i32 0, i32 14
  %72 = getelementptr inbounds nuw %struct.libraw_rawdata_t, ptr %71, i32 0, i32 1
  %73 = load ptr, ptr %72, align 8, !tbaa !76
  %74 = load i32, ptr %4, align 4, !tbaa !83
  %75 = load i32, ptr %6, align 4, !tbaa !83
  %76 = mul i32 %74, %75
  %77 = zext i32 %76 to i64
  %78 = getelementptr inbounds nuw i16, ptr %73, i64 %77
  store ptr %78, ptr %9, align 8, !tbaa !84
  call void @llvm.lifetime.start.p0(i64 4, ptr %10) #14
  store i32 0, ptr %10, align 4, !tbaa !83
  call void @llvm.lifetime.start.p0(i64 4, ptr %11) #14
  store i32 0, ptr %11, align 4, !tbaa !83
  br label %79

79:                                               ; preds = %106, %58
  %80 = load i32, ptr %11, align 4, !tbaa !83
  %81 = load i32, ptr %4, align 4, !tbaa !83
  %82 = sub i32 %81, 3
  %83 = icmp ult i32 %80, %82
  br i1 %83, label %84, label %94

84:                                               ; preds = %79
  %85 = load i32, ptr %10, align 4, !tbaa !83
  %86 = load i32, ptr %3, align 4, !tbaa !83
  %87 = sub i32 %86, 6
  %88 = icmp ult i32 %85, %87
  br i1 %88, label %89, label %94

89:                                               ; preds = %84
  %90 = load i32, ptr %10, align 4, !tbaa !83
  %91 = load i32, ptr %8, align 4, !tbaa !83
  %92 = sub i32 %91, 6
  %93 = icmp ult i32 %90, %92
  br label %94

94:                                               ; preds = %89, %84, %79
  %95 = phi i1 [ false, %84 ], [ false, %79 ], [ %93, %89 ]
  br i1 %95, label %97, label %96

96:                                               ; preds = %94
  store i32 5, ptr %7, align 4
  call void @llvm.lifetime.end.p0(i64 4, ptr %11) #14
  call void @llvm.lifetime.end.p0(i64 4, ptr %10) #14
  br label %111

97:                                               ; preds = %94
  %98 = load ptr, ptr %5, align 8, !tbaa !121
  %99 = load i32, ptr %10, align 4, !tbaa !83
  %100 = zext i32 %99 to i64
  %101 = getelementptr inbounds nuw i8, ptr %98, i64 %100
  %102 = load ptr, ptr %9, align 8, !tbaa !84
  %103 = load i32, ptr %11, align 4, !tbaa !83
  %104 = zext i32 %103 to i64
  %105 = getelementptr inbounds nuw i16, ptr %102, i64 %104
  call void @_ZL24unpack7bytesto4x16_nikonPhPt(ptr noundef %101, ptr noundef %105)
  br label %106

106:                                              ; preds = %97
  %107 = load i32, ptr %10, align 4, !tbaa !83
  %108 = add i32 %107, 7
  store i32 %108, ptr %10, align 4, !tbaa !83
  %109 = load i32, ptr %11, align 4, !tbaa !83
  %110 = add i32 %109, 4
  store i32 %110, ptr %11, align 4, !tbaa !83
  br label %79, !llvm.loop !122

111:                                              ; preds = %96
  call void @llvm.lifetime.end.p0(i64 8, ptr %9) #14
  call void @llvm.lifetime.end.p0(i64 4, ptr %8) #14
  br label %112

112:                                              ; preds = %111
  %113 = load i32, ptr %6, align 4, !tbaa !83
  %114 = add nsw i32 %113, 1
  store i32 %114, ptr %6, align 4, !tbaa !83
  br label %49, !llvm.loop !123

115:                                              ; preds = %57
  %116 = load ptr, ptr %5, align 8, !tbaa !121
  call void @_ZN6LibRaw4freeEPv(ptr noundef nonnull align 8 dereferenceable(767680) %12, ptr noundef %116)
  call void @llvm.lifetime.end.p0(i64 8, ptr %5) #14
  call void @llvm.lifetime.end.p0(i64 4, ptr %4) #14
  call void @llvm.lifetime.end.p0(i64 4, ptr %3) #14
  ret void
}