; Function Attrs: mustprogress uwtable
define void @_ZN6LibRaw20nikon_14bit_load_rawEv(ptr noundef nonnull align 8 dereferenceable(767680) %0) local_unnamed_addr #0 align 2 {
  %2 = getelementptr inbounds nuw i8, ptr %0, i64 16
  %3 = getelementptr inbounds nuw i8, ptr %0, i64 18
  %4 = load i16, ptr %3, align 2, !tbaa !74
  %5 = zext i16 %4 to i32
  %6 = mul nuw nsw i32 %5, 7
  %7 = lshr i32 %6, 2
  %8 = uitofp nneg i32 %7 to double
  %9 = fmul reassoc nsz arcp contract afn double %8, 6.250000e-02
  %10 = fptrunc reassoc nsz arcp contract afn double %9 to float
  %11 = tail call reassoc nsz arcp contract afn float @llvm.ceil.f32(float %10)
  %12 = fptoui float %11 to i32
  %13 = shl i32 %12, 4
  %14 = getelementptr inbounds nuw i8, ptr %0, i64 32
  %15 = load i32, ptr %14, align 8, !tbaa !112
  %.not = icmp eq i32 %15, 0
  %16 = lshr i32 %15, 1
  %17 = select i1 %.not, i32 %5, i32 %16
  %.fr = freeze i32 %17
  %18 = zext i32 %13 to i64
  %19 = tail call noundef ptr @_ZN6LibRaw6callocEmm(ptr noundef nonnull align 8 dereferenceable(767680) %0, i64 noundef %18, i64 noundef 1)
  %20 = load i16, ptr %2, align 8, !tbaa !75
  %.not31 = icmp eq i16 %20, 0
  br i1 %.not31, label %._crit_edge, label %.lr.ph30

.lr.ph30:                                         ; preds = %1
  %21 = getelementptr inbounds nuw i8, ptr %0, i64 381416
  %22 = getelementptr inbounds nuw i8, ptr %0, i64 193648
  %23 = add i32 %.fr, -3
  %24 = add i32 %13, -6
  %.not33 = icmp eq i32 %23, 0
  br i1 %.not33, label %.critedge.us, label %.lr.ph30.split

.critedge.us:                                     ; preds = %.lr.ph30, %.critedge.us
  %.02129.us = phi i32 [ %30, %.critedge.us ], [ 0, %.lr.ph30 ]
  %25 = load ptr, ptr %21, align 8, !tbaa !76
  %26 = load ptr, ptr %25, align 8, !tbaa !77
  %27 = getelementptr inbounds nuw i8, ptr %26, i64 24
  %28 = load ptr, ptr %27, align 8
  %29 = tail call noundef i32 %28(ptr noundef nonnull align 8 dereferenceable(8) %25, ptr noundef %19, i64 noundef 1, i64 noundef %18)
  %30 = add nuw nsw i32 %.02129.us, 1
  %31 = load i16, ptr %2, align 8, !tbaa !75
  %32 = zext i16 %31 to i32
  %33 = icmp samesign ult i32 %30, %32
  br i1 %33, label %.critedge.us, label %._crit_edge, !llvm.loop !118

._crit_edge:                                      ; preds = %.critedge, %.critedge.us, %1
  tail call void @_ZN6LibRaw4freeEPv(ptr noundef nonnull align 8 dereferenceable(767680) %0, ptr noundef %19)
  ret void

.lr.ph30.split:                                   ; preds = %.lr.ph30, %.critedge
  %indvars.iv = phi i64 [ %indvars.iv.next, %.critedge ], [ 0, %.lr.ph30 ]
  %34 = load ptr, ptr %21, align 8, !tbaa !76
  %35 = load ptr, ptr %34, align 8, !tbaa !77
  %36 = getelementptr inbounds nuw i8, ptr %35, i64 24
  %37 = load ptr, ptr %36, align 8
  %38 = tail call noundef i32 %37(ptr noundef nonnull align 8 dereferenceable(8) %34, ptr noundef %19, i64 noundef 1, i64 noundef %18)
  %39 = load ptr, ptr %22, align 8, !tbaa !73
  %40 = trunc nuw nsw i64 %indvars.iv to i32
  %41 = mul i32 %.fr, %40
  %42 = zext i32 %41 to i64
  %43 = getelementptr inbounds nuw i16, ptr %39, i64 %42
  %44 = add i32 %38, -6
  %invariant.umin = tail call i32 @llvm.umin.i32(i32 %24, i32 %44)
  %.not34 = icmp eq i32 %44, 0
  br i1 %.not34, label %.critedge, label %.lr.ph

.critedge:                                        ; preds = %.lr.ph, %.lr.ph30.split
  %indvars.iv.next = add nuw nsw i64 %indvars.iv, 1
  %45 = load i16, ptr %2, align 8, !tbaa !75
  %46 = zext i16 %45 to i64
  %47 = icmp samesign ult i64 %indvars.iv.next, %46
  br i1 %47, label %.lr.ph30.split, label %._crit_edge, !llvm.loop !118

.lr.ph:                                           ; preds = %.lr.ph30.split, %.lr.ph
  %.028 = phi i32 [ %100, %.lr.ph ], [ 0, %.lr.ph30.split ]
  %.02027 = phi i32 [ %99, %.lr.ph ], [ 0, %.lr.ph30.split ]
  %48 = zext i32 %.02027 to i64
  %49 = getelementptr inbounds nuw i8, ptr %19, i64 %48
  %50 = zext i32 %.028 to i64
  %51 = getelementptr inbounds nuw i16, ptr %43, i64 %50
  %52 = getelementptr inbounds nuw i8, ptr %49, i64 6
  %53 = load i8, ptr %52, align 1, !tbaa !89
  %54 = zext i8 %53 to i16
  %55 = shl nuw nsw i16 %54, 6
  %56 = getelementptr inbounds nuw i8, ptr %49, i64 5
  %57 = load i8, ptr %56, align 1, !tbaa !89
  %58 = lshr i8 %57, 2
  %59 = zext nneg i8 %58 to i16
  %60 = or disjoint i16 %55, %59
  %61 = getelementptr inbounds nuw i8, ptr %51, i64 6
  store i16 %60, ptr %61, align 2, !tbaa !80
  %62 = load i8, ptr %56, align 1, !tbaa !89
  %63 = and i8 %62, 3
  %64 = zext nneg i8 %63 to i16
  %65 = shl nuw nsw i16 %64, 12
  %66 = getelementptr inbounds nuw i8, ptr %49, i64 4
  %67 = load i8, ptr %66, align 1, !tbaa !89
  %68 = zext i8 %67 to i16
  %69 = shl nuw nsw i16 %68, 4
  %70 = or disjoint i16 %65, %69
  %71 = getelementptr inbounds nuw i8, ptr %49, i64 3
  %72 = load i8, ptr %71, align 1, !tbaa !89
  %73 = lshr i8 %72, 4
  %74 = zext nneg i8 %73 to i16
  %75 = or disjoint i16 %70, %74
  %76 = getelementptr inbounds nuw i8, ptr %51, i64 4
  store i16 %75, ptr %76, align 2, !tbaa !80
  %77 = load i8, ptr %71, align 1, !tbaa !89
  %78 = and i8 %77, 15
  %79 = zext nneg i8 %78 to i16
  %80 = shl nuw nsw i16 %79, 10
  %81 = getelementptr inbounds nuw i8, ptr %49, i64 2
  %82 = load i8, ptr %81, align 1, !tbaa !89
  %83 = zext i8 %82 to i16
  %84 = shl nuw nsw i16 %83, 2
  %85 = or disjoint i16 %80, %84
  %86 = getelementptr inbounds nuw i8, ptr %49, i64 1
  %87 = load i8, ptr %86, align 1, !tbaa !89
  %88 = lshr i8 %87, 6
  %89 = zext nneg i8 %88 to i16
  %90 = or disjoint i16 %85, %89
  %91 = getelementptr inbounds nuw i8, ptr %51, i64 2
  store i16 %90, ptr %91, align 2, !tbaa !80
  %92 = load i8, ptr %86, align 1, !tbaa !89
  %93 = and i8 %92, 63
  %94 = zext nneg i8 %93 to i16
  %95 = shl nuw nsw i16 %94, 8
  %96 = load i8, ptr %49, align 1, !tbaa !89
  %97 = zext i8 %96 to i16
  %98 = or disjoint i16 %95, %97
  store i16 %98, ptr %51, align 2, !tbaa !80
  %99 = add i32 %.02027, 7
  %100 = add i32 %.028, 4
  %101 = icmp ult i32 %100, %23
  %102 = icmp ult i32 %99, %invariant.umin
  %or.cond25 = and i1 %101, %102
  br i1 %or.cond25, label %.lr.ph, label %.critedge, !llvm.loop !119
}